target datalayout = "e-m:e-p270:32:32-p271:32:32-p272:64:64-i64:64-i128:128-f80:128-n8:16:32:64-S128"
target triple = "x86_64-pc-linux-gnu"

%struct.BitstreamContextLE = type { i64, ptr, ptr, ptr, i32, i32 }

; Function Attrs: inlinehint nounwind uwtable
define internal i32 @bits_priv_refill_64_le(ptr noundef %0) #5 {
  %2 = alloca i32, align 4
  %3 = alloca ptr, align 8
  store ptr %0, ptr %3, align 8, !tbaa !44
  %4 = load ptr, ptr %3, align 8, !tbaa !44
  %5 = getelementptr inbounds nuw %struct.BitstreamContextLE, ptr %4, i32 0, i32 3
  %6 = load ptr, ptr %5, align 8, !tbaa !101
  %7 = load ptr, ptr %3, align 8, !tbaa !44
  %8 = getelementptr inbounds nuw %struct.BitstreamContextLE, ptr %7, i32 0, i32 2
  %9 = load ptr, ptr %8, align 8, !tbaa !123
  %10 = icmp uge ptr %6, %9
  br i1 %10, label %11, label %12

11:                                               ; preds = %1
  store i32 -1, ptr %2, align 4
  br label %25

12:                                               ; preds = %1
  %13 = load ptr, ptr %3, align 8, !tbaa !44
  %14 = getelementptr inbounds nuw %struct.BitstreamContextLE, ptr %13, i32 0, i32 3
  %15 = load ptr, ptr %14, align 8, !tbaa !101
  %16 = load i64, ptr %15, align 1, !tbaa !87
  %17 = load ptr, ptr %3, align 8, !tbaa !44
  %18 = getelementptr inbounds nuw %struct.BitstreamContextLE, ptr %17, i32 0, i32 0
  store i64 %16, ptr %18, align 8, !tbaa !121
  %19 = load ptr, ptr %3, align 8, !tbaa !44
  %20 = getelementptr inbounds nuw %struct.BitstreamContextLE, ptr %19, i32 0, i32 3
  %21 = load ptr, ptr %20, align 8, !tbaa !101
  %22 = getelementptr inbounds i8, ptr %21, i64 8
  store ptr %22, ptr %20, align 8, !tbaa !101
  %23 = load ptr, ptr %3, align 8, !tbaa !44
  %24 = getelementptr inbounds nuw %struct.BitstreamContextLE, ptr %23, i32 0, i32 4
  store i32 64, ptr %24, align 8, !tbaa !103
  store i32 0, ptr %2, align 4
  br label %25

25:                                               ; preds = %12, %11
  %26 = load i32, ptr %2, align 4
  ret i32 %26
}

; Function Attrs: inlinehint nounwind uwtable
define internal void @bits_priv_skip_remaining_le(ptr noundef %0, i32 noundef %1) #5 {
  %3 = alloca ptr, align 8
  %4 = alloca i32, align 4
  store ptr %0, ptr %3, align 8, !tbaa !44
  store i32 %1, ptr %4, align 4, !tbaa !49
  %5 = load i32, ptr %4, align 4, !tbaa !49
  %6 = load ptr, ptr %3, align 8, !tbaa !44
  %7 = getelementptr inbounds nuw %struct.BitstreamContextLE, ptr %6, i32 0, i32 0
  %8 = load i64, ptr %7, align 8, !tbaa !121
  %9 = zext i32 %5 to i64
  %10 = lshr i64 %8, %9
  store i64 %10, ptr %7, align 8, !tbaa !121
  %11 = load i32, ptr %4, align 4, !tbaa !49
  %12 = load ptr, ptr %3, align 8, !tbaa !44
  %13 = getelementptr inbounds nuw %struct.BitstreamContextLE, ptr %12, i32 0, i32 4
  %14 = load i32, ptr %13, align 8, !tbaa !103
  %15 = sub i32 %14, %11
  store i32 %15, ptr %13, align 8, !tbaa !103
  ret void
}

; Function Attrs: inlinehint nounwind uwtable
define internal void @bits_skip_le(ptr noundef %0, i32 noundef %1) #5 {
  %3 = alloca ptr, align 8
  %4 = alloca i32, align 4
  %5 = alloca i32, align 4
  store ptr %0, ptr %3, align 8, !tbaa !44
  store i32 %1, ptr %4, align 4, !tbaa !49
  %6 = load i32, ptr %4, align 4, !tbaa !49
  %7 = load ptr, ptr %3, align 8, !tbaa !44
  %8 = getelementptr inbounds nuw %struct.BitstreamContextLE, ptr %7, i32 0, i32 4
  %9 = load i32, ptr %8, align 8, !tbaa !103
  %10 = icmp ult i32 %6, %9
  br i1 %10, label %11, label %14

11:                                               ; preds = %2
  %12 = load ptr, ptr %3, align 8, !tbaa !44
  %13 = load i32, ptr %4, align 4, !tbaa !49
  call void @bits_priv_skip_remaining_le(ptr noundef %12, i32 noundef %13)
  br label %48

14:                                               ; preds = %2
  %15 = load ptr, ptr %3, align 8, !tbaa !44
  %16 = getelementptr inbounds nuw %struct.BitstreamContextLE, ptr %15, i32 0, i32 4
  %17 = load i32, ptr %16, align 8, !tbaa !103
  %18 = load i32, ptr %4, align 4, !tbaa !49
  %19 = sub i32 %18, %17
  store i32 %19, ptr %4, align 4, !tbaa !49
  %20 = load ptr, ptr %3, align 8, !tbaa !44
  %21 = getelementptr inbounds nuw %struct.BitstreamContextLE, ptr %20, i32 0, i32 0
  store i64 0, ptr %21, align 8, !tbaa !121
  %22 = load ptr, ptr %3, align 8, !tbaa !44
  %23 = getelementptr inbounds nuw %struct.BitstreamContextLE, ptr %22, i32 0, i32 4
  store i32 0, ptr %23, align 8, !tbaa !103
  %24 = load i32, ptr %4, align 4, !tbaa !49
  %25 = icmp uge i32 %24, 64
  br i1 %25, label %26, label %39

26:                                               ; preds = %14
  call void @llvm.lifetime.start.p0(i64 4, ptr %5) #9
  %27 = load i32, ptr %4, align 4, !tbaa !49
  %28 = udiv i32 %27, 8
  store i32 %28, ptr %5, align 4, !tbaa !49
  %29 = load i32, ptr %5, align 4, !tbaa !49
  %30 = mul i32 %29, 8
  %31 = load i32, ptr %4, align 4, !tbaa !49
  %32 = sub i32 %31, %30
  store i32 %32, ptr %4, align 4, !tbaa !49
  %33 = load i32, ptr %5, align 4, !tbaa !49
  %34 = load ptr, ptr %3, align 8, !tbaa !44
  %35 = getelementptr inbounds nuw %struct.BitstreamContextLE, ptr %34, i32 0, i32 3
  %36 = load ptr, ptr %35, align 8, !tbaa !101
  %37 = zext i32 %33 to i64
  %38 = getelementptr inbounds nuw i8, ptr %36, i64 %37
  store ptr %38, ptr %35, align 8, !tbaa !101
  call void @llvm.lifetime.end.p0(i64 4, ptr %5) #9
  br label %39

39:                                               ; preds = %26, %14
  %40 = load ptr, ptr %3, align 8, !tbaa !44
  %41 = call i32 @bits_priv_refill_64_le(ptr noundef %40)
  %42 = load i32, ptr %4, align 4, !tbaa !49
  %43 = icmp ne i32 %42, 0
  br i1 %43, label %44, label %47

44:                                               ; preds = %39
  %45 = load ptr, ptr %3, align 8, !tbaa !44
  %46 = load i32, ptr %4, align 4, !tbaa !49
  call void @bits_priv_skip_remaining_le(ptr noundef %45, i32 noundef %46)
  br label %47

47:                                               ; preds = %44, %39
  br label %48

48:                                               ; preds = %47, %11
  ret void
}

; Function Attrs: inlinehint nounwind uwtable
define internal i32 @bits_tell_le(ptr noundef %0) #5 {
  %2 = alloca ptr, align 8
  store ptr %0, ptr %2, align 8, !tbaa !44
  %3 = load ptr, ptr %2, align 8, !tbaa !44
  %4 = getelementptr inbounds nuw %struct.BitstreamContextLE, ptr %3, i32 0, i32 3
  %5 = load ptr, ptr %4, align 8, !tbaa !101
  %6 = load ptr, ptr %2, align 8, !tbaa !44
  %7 = getelementptr inbounds nuw %struct.BitstreamContextLE, ptr %6, i32 0, i32 1
  %8 = load ptr, ptr %7, align 8, !tbaa !102
  %9 = ptrtoint ptr %5 to i64
  %10 = ptrtoint ptr %8 to i64
  %11 = sub i64 %9, %10
  %12 = mul nsw i64 %11, 8
  %13 = load ptr, ptr %2, align 8, !tbaa !44
  %14 = getelementptr inbounds nuw %struct.BitstreamContextLE, ptr %13, i32 0, i32 4
  %15 = load i32, ptr %14, align 8, !tbaa !103
  %16 = zext i32 %15 to i64
  %17 = sub nsw i64 %12, %16
  %18 = trunc i64 %17 to i32
  ret i32 %18
}

; Function Attrs: inlinehint nounwind uwtable
define internal ptr @bits_align_le(ptr noundef %0) #5 {
  %2 = alloca ptr, align 8
  %3 = alloca i32, align 4
  store ptr %0, ptr %2, align 8, !tbaa !44
  call void @llvm.lifetime.start.p0(i64 4, ptr %3) #9
  %4 = load ptr, ptr %2, align 8, !tbaa !44
  %5 = call i32 @bits_tell_le(ptr noundef %4)
  %6 = sub nsw i32 0, %5
  %7 = and i32 %6, 7
  store i32 %7, ptr %3, align 4, !tbaa !49
  %8 = load i32, ptr %3, align 4, !tbaa !49
  %9 = icmp ne i32 %8, 0
  br i1 %9, label %10, label %13

10:                                               ; preds = %1
  %11 = load ptr, ptr %2, align 8, !tbaa !44
  %12 = load i32, ptr %3, align 4, !tbaa !49
  call void @bits_skip_le(ptr noundef %11, i32 noundef %12)
  br label %13

13:                                               ; preds = %10, %1
  %14 = load ptr, ptr %2, align 8, !tbaa !44
  %15 = getelementptr inbounds nuw %struct.BitstreamContextLE, ptr %14, i32 0, i32 1
  %16 = load ptr, ptr %15, align 8, !tbaa !102
  %17 = load ptr, ptr %2, align 8, !tbaa !44
  %18 = call i32 @bits_tell_le(ptr noundef %17)
  %19 = ashr i32 %18, 3
  %20 = sext i32 %19 to i64
  %21 = getelementptr inbounds i8, ptr %16, i64 %20
  call void @llvm.lifetime.end.p0(i64 4, ptr %3) #9
  ret ptr %21
}