; Function Attrs: inlinehint mustprogress nofree norecurse nosync nounwind willreturn memory(read, argmem: readwrite, inaccessiblemem: none) uwtable
define internal fastcc void @bits_align_le(ptr noundef captures(none) %0) unnamed_addr #7 {
  %2 = getelementptr inbounds nuw i8, ptr %0, i64 24
  %3 = load ptr, ptr %2, align 8, !tbaa !43
  %4 = getelementptr inbounds nuw i8, ptr %0, i64 32
  %5 = load i32, ptr %4, align 8, !tbaa !44
  %6 = and i32 %5, 7
  %.not = icmp eq i32 %6, 0
  br i1 %.not, label %bits_skip_le.exit, label %7

7:                                                ; preds = %1
  %.not8 = icmp ult i32 %5, 8
  br i1 %.not8, label %._crit_edge.i, label %.sink.split.i

.sink.split.i:                                    ; preds = %7
  %8 = load i64, ptr %0, align 8, !tbaa !47
  %9 = zext nneg i32 %6 to i64
  %10 = lshr i64 %8, %9
  store i64 %10, ptr %0, align 8, !tbaa !47
  %11 = and i32 %5, -8
  br label %bits_skip_le.exit.sink.split

._crit_edge.i:                                    ; preds = %7
  store i64 0, ptr %0, align 8, !tbaa !47
  store i32 0, ptr %4, align 8, !tbaa !44
  %12 = getelementptr inbounds nuw i8, ptr %0, i64 16
  %13 = load ptr, ptr %12, align 8, !tbaa !45
  %.not.i.i = icmp ult ptr %3, %13
  br i1 %.not.i.i, label %14, label %bits_skip_le.exit

14:                                               ; preds = %._crit_edge.i
  %15 = load i64, ptr %3, align 1, !tbaa !48
  store i64 %15, ptr %0, align 8, !tbaa !47
  %16 = getelementptr inbounds nuw i8, ptr %3, i64 8
  store ptr %16, ptr %2, align 8, !tbaa !43
  br label %bits_skip_le.exit.sink.split

bits_skip_le.exit.sink.split:                     ; preds = %.sink.split.i, %14
  %.sink = phi i32 [ 64, %14 ], [ %11, %.sink.split.i ]
  store i32 %.sink, ptr %4, align 8, !tbaa !44
  br label %bits_skip_le.exit

bits_skip_le.exit:                                ; preds = %bits_skip_le.exit.sink.split, %._crit_edge.i, %1
  ret void
}